Certificate:
    Data:
        Version: 1 (0x0)
        Serial Number: 4098 (0x1002)
        Signature Algorithm: sha256WithRSAEncryption
        Issuer: C=US, ST=CA, O=MyOrg.inter.test_client, Inc., CN=idscp-test.de
        Validity
            Not Before: Nov  5 09:21:10 2020 GMT
            Not After : Nov  5 09:21:10 2021 GMT
        Subject: C=US, ST=CA, O=MyOrg.test_client, Inc., CN=idscp-test.de
        Subject Public Key Info:
            Public Key Algorithm: rsaEncryption
                RSA Public-Key: (2048 bit)
                Modulus:
                    00:e4:f9:03:37:e1:1c:52:d7:05:b7:0d:fc:89:ec:
                    0b:e0:72:42:a6:d3:2e:60:c3:c2:55:cb:31:d4:36:
                    0f:e9:2b:a3:6b:6b:c8:bc:b7:bd:49:a8:c8:30:c3:
                    b6:bf:0d:63:f6:e7:46:75:77:15:f6:8f:b2:77:c3:
                    86:44:ce:0b:a9:e9:a4:a0:c0:24:59:6c:9f:e6:bd:
                    be:2a:22:74:e6:91:0b:aa:63:ee:12:7b:da:68:98:
                    44:5e:7e:7d:e1:e2:36:be:0f:0c:cd:38:24:10:ee:
                    01:d1:08:f7:35:7b:8c:d9:61:9f:db:70:1a:4b:b0:
                    bb:3f:54:77:e2:a7:84:77:4b:84:03:86:fb:52:a1:
                    3d:54:16:a9:ed:3d:37:ab:cc:e9:39:d5:fe:1f:9f:
                    8c:2c:aa:df:9a:59:ed:69:10:56:8b:cb:94:6e:cd:
                    5d:1e:a6:9e:38:e7:c1:5c:14:e4:55:03:7d:3c:4c:
                    7d:1c:81:d9:7d:dd:73:ea:c1:01:f5:0f:e8:18:2a:
                    fd:f9:ca:03:15:19:b9:7f:d3:68:74:bb:05:09:a1:
                    64:89:19:23:d6:f0:90:f1:a2:05:8e:ab:d0:c8:78:
                    a4:5f:f1:d8:54:b6:55:44:fa:21:22:ef:03:d3:5e:
                    7f:10:aa:a8:aa:47:12:66:dc:a5:ac:0a:5a:4a:ac:
                    7c:6b
                Exponent: 65537 (0x10001)
    Signature Algorithm: sha256WithRSAEncryption
         53:25:0d:74:b7:a2:23:25:3e:6b:ca:55:40:85:da:5a:ea:62:
         aa:7c:a5:33:b2:b6:5b:19:e1:f1:7f:b2:d1:07:1d:82:84:64:
         d8:a7:ee:6b:40:a9:92:3c:a7:b6:df:41:ad:20:47:23:b4:29:
         96:d6:d3:de:f5:55:d6:a8:c9:a6:be:b8:4b:bc:ef:42:d8:b9:
         10:a4:48:0d:f0:34:bc:d7:34:59:af:86:3a:39:2c:25:84:c4:
         75:85:5c:4e:47:8b:18:b5:97:5c:a2:33:b1:c8:31:8a:f7:b6:
         93:d9:78:62:e1:1c:a6:99:37:54:63:0a:d1:ae:77:95:9c:4c:
         cc:38:ba:f6:f3:78:36:96:26:52:cd:45:59:b2:69:73:60:01:
         e4:9a:7e:69:6b:a8:cd:ab:2d:ad:7e:72:ed:64:c4:f9:06:82:
         27:61:44:60:b6:46:75:d9:38:ce:68:35:43:3e:5d:fd:70:4d:
         a5:5a:3b:23:31:82:30:bf:e7:f8:e9:e1:aa:84:f3:64:c4:d8:
         34:a0:8b:5c:61:a4:3d:21:7e:32:38:14:ce:73:22:42:95:d9:
         f0:d4:b1:72:96:16:b1:78:b1:d7:dc:46:0b:cd:6f:a0:29:3e:
         63:c7:25:1c:fc:5d:53:13:f6:f7:f5:ab:94:bf:92:02:a6:31:
         3a:58:73:b2
-----BEGIN CERTIFICATE-----
MIIDIzCCAgsCAhACMA0GCSqGSIb3DQEBCwUAMFoxCzAJBgNVBAYTAlVTMQswCQYD
VQQIDAJDQTEmMCQGA1UECgwdTXlPcmcuaW50ZXIudGVzdF9jbGllbnQsIEluYy4x
FjAUBgNVBAMMDWlkc2NwLXRlc3QuZGUwHhcNMjAxMTA1MDkyMTEwWhcNMjExMTA1
MDkyMTEwWjBUMQswCQYDVQQGEwJVUzELMAkGA1UECAwCQ0ExIDAeBgNVBAoMF015
T3JnLnRlc3RfY2xpZW50LCBJbmMuMRYwFAYDVQQDDA1pZHNjcC10ZXN0LmRlMIIB
IjANBgkqhkiG9w0BAQEFAAOCAQ8AMIIBCgKCAQEA5PkDN+EcUtcFtw38iewL4HJC
ptMuYMPCVcsx1DYP6Suja2vIvLe9SajIMMO2vw1j9udGdXcV9o+yd8OGRM4Lqemk
oMAkWWyf5r2+KiJ05pELqmPuEnvaaJhEXn594eI2vg8MzTgkEO4B0Qj3NXuM2WGf
23AaS7C7P1R34qeEd0uEA4b7UqE9VBap7T03q8zpOdX+H5+MLKrfmlntaRBWi8uU
bs1dHqaeOOfBXBTkVQN9PEx9HIHZfd1z6sEB9Q/oGCr9+coDFRm5f9NodLsFCaFk
iRkj1vCQ8aIFjqvQyHikX/HYVLZVRPohIu8D015/EKqoqkcSZtylrApaSqx8awID
AQABMA0GCSqGSIb3DQEBCwUAA4IBAQBTJQ10t6IjJT5rylVAhdpa6mKqfKUzsrZb
GeHxf7LRBx2ChGTYp+5rQKmSPKe230GtIEcjtCmW1tPe9VXWqMmmvrhLvO9C2LkQ
pEgN8DS81zRZr4Y6OSwlhMR1hVxOR4sYtZdcojOxyDGK97aT2Xhi4RymmTdUYwrR
rneVnEzMOLr283g2liZSzUVZsmlzYAHkmn5pa6jNqy2tfnLtZMT5BoInYURgtkZ1
2TjOaDVDPl39cE2lWjsjMYIwv+f46eGqhPNkxNg0oItcYaQ9IX4yOBTOcyJCldnw
1LFylhaxeLHX3EYLzW+gKT5jxyUc/F1TE/b39auUv5ICpjE6WHOy
-----END CERTIFICATE-----
